; Function Attrs: mustprogress uwtable
define hidden void @_ZN6google8protobuf15StripWhitespaceEPNSt7__cxx1112basic_stringIcSt11char_traitsIcESaIcEEE(ptr noundef %0) local_unnamed_addr #6 personality ptr @__gxx_personality_v0 {
  %2 = getelementptr inbounds nuw i8, ptr %0, i64 8
  %3 = load i64, ptr %2, align 8, !tbaa !14
  %4 = trunc i64 %3 to i32
  %5 = icmp sgt i32 %4, 0
  br i1 %5, label %.lr.ph.preheader, label %.critedge.thread55

.lr.ph.preheader:                                 ; preds = %1
  %wide.trip.count = and i64 %3, 2147483647
  br label %.lr.ph

.lr.ph:                                           ; preds = %.lr.ph.preheader, %10
  %indvars.iv = phi i64 [ 0, %.lr.ph.preheader ], [ %indvars.iv.next, %10 ]
  %exitcond.not = icmp eq i64 %indvars.iv, %3
  br i1 %exitcond.not, label %6, label %_ZNSt7__cxx1112basic_stringIcSt11char_traitsIcESaIcEE2atEm.exit

6:                                                ; preds = %.lr.ph
  tail call void (ptr, ...) @_ZSt24__throw_out_of_range_fmtPKcz(ptr noundef nonnull @.str.48, i64 noundef %3, i64 noundef %3) #30
  unreachable

_ZNSt7__cxx1112basic_stringIcSt11char_traitsIcESaIcEE2atEm.exit: ; preds = %.lr.ph
  %7 = load ptr, ptr %0, align 8, !tbaa !3
  %8 = getelementptr inbounds nuw i8, ptr %7, i64 %indvars.iv
  %9 = load i8, ptr %8, align 1, !tbaa !11
  switch i8 %9, label %.critedge [
    i8 32, label %10
    i8 12, label %10
    i8 11, label %10
    i8 10, label %10
    i8 9, label %10
    i8 13, label %10
  ]

10:                                               ; preds = %_ZNSt7__cxx1112basic_stringIcSt11char_traitsIcESaIcEE2atEm.exit, %_ZNSt7__cxx1112basic_stringIcSt11char_traitsIcESaIcEE2atEm.exit, %_ZNSt7__cxx1112basic_stringIcSt11char_traitsIcESaIcEE2atEm.exit, %_ZNSt7__cxx1112basic_stringIcSt11char_traitsIcESaIcEE2atEm.exit, %_ZNSt7__cxx1112basic_stringIcSt11char_traitsIcESaIcEE2atEm.exit, %_ZNSt7__cxx1112basic_stringIcSt11char_traitsIcESaIcEE2atEm.exit
  %indvars.iv.next = add nuw nsw i64 %indvars.iv, 1
  %exitcond53.not = icmp eq i64 %indvars.iv.next, %wide.trip.count
  br i1 %exitcond53.not, label %.critedge.thread, label %.lr.ph, !llvm.loop !15

.critedge:                                        ; preds = %_ZNSt7__cxx1112basic_stringIcSt11char_traitsIcESaIcEE2atEm.exit
  %11 = trunc nuw nsw i64 %indvars.iv to i32
  %12 = icmp eq i32 %11, %4
  br i1 %12, label %.critedge.thread, label %15

.critedge.thread55:                               ; preds = %1
  %13 = icmp eq i32 %4, 0
  br i1 %13, label %.critedge.thread, label %.critedge2.thread

.critedge.thread:                                 ; preds = %10, %.critedge.thread55, %.critedge
  store i64 0, ptr %2, align 8, !tbaa !14
  %14 = load ptr, ptr %0, align 8, !tbaa !3
  store i8 0, ptr %14, align 1, !tbaa !11
  br label %.critedge2.thread

15:                                               ; preds = %.critedge
  %.not = icmp eq i64 %indvars.iv, 0
  br i1 %.not, label %17, label %_ZNSt7__cxx1112basic_stringIcSt11char_traitsIcESaIcEE5eraseEmm.exit

_ZNSt7__cxx1112basic_stringIcSt11char_traitsIcESaIcEE5eraseEmm.exit: ; preds = %15
  %spec.select.i.i = tail call noundef i64 @llvm.umin.i64(i64 %indvars.iv, i64 %3)
  tail call void @_ZNSt7__cxx1112basic_stringIcSt11char_traitsIcESaIcEE8_M_eraseEmm(ptr noundef nonnull align 8 dereferenceable(32) %0, i64 noundef 0, i64 noundef %spec.select.i.i)
  %16 = sub nsw i32 %4, %11
  br label %17

17:                                               ; preds = %_ZNSt7__cxx1112basic_stringIcSt11char_traitsIcESaIcEE5eraseEmm.exit, %15
  %.027 = phi i32 [ %16, %_ZNSt7__cxx1112basic_stringIcSt11char_traitsIcESaIcEE5eraseEmm.exit ], [ %4, %15 ]
  %18 = add nsw i32 %.027, -1
  %19 = icmp sgt i32 %.027, 0
  br i1 %19, label %.lr.ph45, label %.critedge2.thread

.lr.ph45:                                         ; preds = %17
  %20 = load i64, ptr %2, align 8, !tbaa !14
  br label %21

21:                                               ; preds = %.lr.ph45, %27
  %.044 = phi i32 [ %18, %.lr.ph45 ], [ %28, %27 ]
  %22 = zext nneg i32 %.044 to i64
  %.not.i29 = icmp ugt i64 %20, %22
  br i1 %.not.i29, label %_ZNSt7__cxx1112basic_stringIcSt11char_traitsIcESaIcEE2atEm.exit30, label %23

23:                                               ; preds = %21
  tail call void (ptr, ...) @_ZSt24__throw_out_of_range_fmtPKcz(ptr noundef nonnull @.str.48, i64 noundef %22, i64 noundef %20) #30
  unreachable

_ZNSt7__cxx1112basic_stringIcSt11char_traitsIcESaIcEE2atEm.exit30: ; preds = %21
  %24 = load ptr, ptr %0, align 8, !tbaa !3
  %25 = getelementptr inbounds nuw i8, ptr %24, i64 %22
  %26 = load i8, ptr %25, align 1, !tbaa !11
  switch i8 %26, label %.critedge2 [
    i8 32, label %27
    i8 12, label %27
    i8 11, label %27
    i8 10, label %27
    i8 9, label %27
    i8 13, label %27
  ]

27:                                               ; preds = %_ZNSt7__cxx1112basic_stringIcSt11char_traitsIcESaIcEE2atEm.exit30, %_ZNSt7__cxx1112basic_stringIcSt11char_traitsIcESaIcEE2atEm.exit30, %_ZNSt7__cxx1112basic_stringIcSt11char_traitsIcESaIcEE2atEm.exit30, %_ZNSt7__cxx1112basic_stringIcSt11char_traitsIcESaIcEE2atEm.exit30, %_ZNSt7__cxx1112basic_stringIcSt11char_traitsIcESaIcEE2atEm.exit30, %_ZNSt7__cxx1112basic_stringIcSt11char_traitsIcESaIcEE2atEm.exit30
  %28 = add nsw i32 %.044, -1
  %29 = icmp sgt i32 %.044, 0
  br i1 %29, label %21, label %.critedge2.thread, !llvm.loop !16

.critedge2:                                       ; preds = %_ZNSt7__cxx1112basic_stringIcSt11char_traitsIcESaIcEE2atEm.exit30
  %.not34 = icmp eq i32 %.044, %18
  br i1 %.not34, label %.critedge2.thread, label %30

30:                                               ; preds = %.critedge2
  %31 = add nuw nsw i32 %.044, 1
  %32 = zext nneg i32 %31 to i64
  %33 = icmp ult i64 %20, %32
  br i1 %33, label %34, label %_ZNSt7__cxx1112basic_stringIcSt11char_traitsIcESaIcEE5eraseEmm.exit32

34:                                               ; preds = %30
  tail call void (ptr, ...) @_ZSt24__throw_out_of_range_fmtPKcz(ptr noundef nonnull @.str.45, ptr noundef nonnull @.str.49, i64 noundef %32, i64 noundef %20) #30
  unreachable

_ZNSt7__cxx1112basic_stringIcSt11char_traitsIcESaIcEE5eraseEmm.exit32: ; preds = %30
  store i64 %32, ptr %2, align 8, !tbaa !14
  %35 = getelementptr inbounds nuw i8, ptr %24, i64 %32
  store i8 0, ptr %35, align 1, !tbaa !11
  br label %.critedge2.thread

.critedge2.thread:                                ; preds = %27, %.critedge.thread55, %17, %.critedge2, %_ZNSt7__cxx1112basic_stringIcSt11char_traitsIcESaIcEE5eraseEmm.exit32, %.critedge.thread
  ret void
}